; Function Attrs: mustprogress nofree norecurse nosync nounwind willreturn memory(argmem: write) uwtable
define void @evhttp_set_timeout(ptr noundef writeonly captures(none) initializes((128, 160)) %0, i32 noundef %1) local_unnamed_addr #5 {
  %3 = getelementptr inbounds nuw i8, ptr %0, i64 128
  %4 = icmp eq i32 %1, -1
  %narrow.i = select i1 %4, i32 0, i32 %1
  %spec.select7.i = sext i32 %narrow.i to i64
  %5 = getelementptr inbounds nuw i8, ptr %0, i64 136
  store i64 0, ptr %5, align 8
  store i64 %spec.select7.i, ptr %3, align 8
  %6 = getelementptr inbounds nuw i8, ptr %0, i64 144
  %7 = getelementptr inbounds nuw i8, ptr %0, i64 152
  store i64 0, ptr %7, align 8
  store i64 %spec.select7.i, ptr %6, align 8
  ret void
}